; ModuleID = '16/556.c'
source_filename = "16/556.c"
target datalayout = "e-m:e-p270:32:32-p271:32:32-p272:64:64-i64:64-f80:128-n8:16:32:64-S128"
target triple = "x86_64-pc-linux-gnu"

@.str = private unnamed_addr constant [3 x i8] c"%s\00", align 1
@.str.1 = private unnamed_addr constant [3 x i8] c"%c\00", align 1

; Function Attrs: noinline nounwind uwtable
define dso_local i32 @main() #0 {
  %1 = alloca i32, align 4
  %2 = alloca float, align 4
  %3 = alloca float, align 4
  %4 = alloca float, align 4
  %5 = alloca i32, align 4
  %6 = alloca i32, align 4
  %7 = alloca i32, align 4
  %8 = alloca i32, align 4
  %9 = alloca i32, align 4
  %10 = alloca i32, align 4
  %11 = alloca i32, align 4
  %12 = alloca i32, align 4
  %13 = alloca i32, align 4
  %14 = alloca i32, align 4
  %15 = alloca i32, align 4
  %16 = alloca [10 x i8], align 1
  store i32 0, i32* %1, align 4
  %17 = getelementptr inbounds [10 x i8], [10 x i8]* %16, i64 0, i64 0
  %18 = call i32 (i8*, ...) @__isoc99_scanf(i8* getelementptr inbounds ([3 x i8], [3 x i8]* @.str, i64 0, i64 0), i8* %17)
  %19 = getelementptr inbounds [10 x i8], [10 x i8]* %16, i64 0, i64 0
  %20 = call i64 @strlen(i8* %19) #3
  %21 = sub i64 %20, 1
  %22 = trunc i64 %21 to i32
  store i32 %22, i32* %14, align 4
  br label %23

23:                                               ; preds = %33, %0
  %24 = load i32, i32* %14, align 4
  %25 = icmp sge i32 %24, 0
  br i1 %25, label %26, label %36

26:                                               ; preds = %23
  %27 = load i32, i32* %14, align 4
  %28 = sext i32 %27 to i64
  %29 = getelementptr inbounds [10 x i8], [10 x i8]* %16, i64 0, i64 %28
  %30 = load i8, i8* %29, align 1
  %31 = sext i8 %30 to i32
  %32 = call i32 (i8*, ...) @printf(i8* getelementptr inbounds ([3 x i8], [3 x i8]* @.str.1, i64 0, i64 0), i32 %31)
  br label %33

33:                                               ; preds = %26
  %34 = load i32, i32* %14, align 4
  %35 = add nsw i32 %34, -1
  store i32 %35, i32* %14, align 4
  br label %23

36:                                               ; preds = %23
  ret i32 7
}

declare dso_local i32 @__isoc99_scanf(i8*, ...) #1

; Function Attrs: nounwind readonly
declare dso_local i64 @strlen(i8*) #2

declare dso_local i32 @printf(i8*, ...) #1


!llvm.module.flags = !{!0}
!llvm.ident = !{!1}

!0 = !{i32 1, !"wchar_size", i32 4}
!1 = !{!"clang version 10.0.0-4ubuntu1 "}
